target datalayout = "e-m:e-p270:32:32-p271:32:32-p272:64:64-i64:64-i128:128-f80:128-n8:16:32:64-S128"
target triple = "x86_64-pc-linux-gnu"

%struct.PCF_FaceRec_ = type { %struct.FT_FaceRec_, %struct.FT_StreamRec_, ptr, ptr, ptr, %struct.PCF_TocRec_, %struct.PCF_AccelRec_, i32, ptr, i64, ptr, %struct.PCF_EncRec_, i64 }
%struct.FT_FaceRec_ = type { i64, i64, i64, i64, i64, ptr, ptr, i32, ptr, i32, ptr, %struct.FT_Generic_, %struct.FT_BBox_, i16, i16, i16, i16, i16, i16, i16, i16, ptr, ptr, ptr, ptr, ptr, ptr, %struct.FT_ListRec_, %struct.FT_Generic_, ptr, ptr }
%struct.FT_BBox_ = type { i64, i64, i64, i64 }
%struct.FT_ListRec_ = type { ptr, ptr }
%struct.FT_Generic_ = type { ptr, ptr }
%struct.FT_StreamRec_ = type { ptr, i64, i64, %union.FT_StreamDesc_, %union.FT_StreamDesc_, ptr, ptr, ptr, ptr, ptr }
%union.FT_StreamDesc_ = type { i64 }
%struct.PCF_TocRec_ = type { i64, i64, ptr }
%struct.PCF_AccelRec_ = type { i8, i8, i8, i8, i8, i8, i8, i64, i64, i64, %struct.PCF_MetricRec_, %struct.PCF_MetricRec_, %struct.PCF_MetricRec_, %struct.PCF_MetricRec_ }
%struct.PCF_MetricRec_ = type { i16, i16, i16, i16, i16, i16, i64 }
%struct.PCF_EncRec_ = type { i16, i16, i16, i16, i16, ptr }
%struct.PCF_PropertyRec_ = type { ptr, i8, %union.anon }
%union.anon = type { ptr }

; Function Attrs: nounwind uwtable
define internal void @PCF_Face_Done(ptr noundef %0) #0 {
  %2 = alloca ptr, align 8
  %3 = alloca ptr, align 8
  %4 = alloca ptr, align 8
  %5 = alloca i32, align 4
  %6 = alloca ptr, align 8
  store ptr %0, ptr %2, align 8
  %7 = load ptr, ptr %2, align 8
  store ptr %7, ptr %3, align 8
  %8 = load ptr, ptr %2, align 8
  %9 = icmp ne ptr %8, null
  br i1 %9, label %11, label %10

10:                                               ; preds = %1
  br label %154

11:                                               ; preds = %1
  %12 = load ptr, ptr %2, align 8
  %13 = getelementptr inbounds %struct.FT_FaceRec_, ptr %12, i32 0, i32 25
  %14 = load ptr, ptr %13, align 8
  store ptr %14, ptr %4, align 8
  br label %15

15:                                               ; preds = %11
  %16 = load ptr, ptr %4, align 8
  %17 = load ptr, ptr %3, align 8
  %18 = getelementptr inbounds %struct.PCF_FaceRec_, ptr %17, i32 0, i32 10
  %19 = load ptr, ptr %18, align 8
  call void @ft_mem_free(ptr noundef %16, ptr noundef %19)
  %20 = load ptr, ptr %3, align 8
  %21 = getelementptr inbounds %struct.PCF_FaceRec_, ptr %20, i32 0, i32 10
  store ptr null, ptr %21, align 8
  br label %22

22:                                               ; preds = %15
  br label %23

23:                                               ; preds = %22
  %24 = load ptr, ptr %4, align 8
  %25 = load ptr, ptr %3, align 8
  %26 = getelementptr inbounds %struct.PCF_FaceRec_, ptr %25, i32 0, i32 11
  %27 = getelementptr inbounds %struct.PCF_EncRec_, ptr %26, i32 0, i32 5
  %28 = load ptr, ptr %27, align 8
  call void @ft_mem_free(ptr noundef %24, ptr noundef %28)
  %29 = load ptr, ptr %3, align 8
  %30 = getelementptr inbounds %struct.PCF_FaceRec_, ptr %29, i32 0, i32 11
  %31 = getelementptr inbounds %struct.PCF_EncRec_, ptr %30, i32 0, i32 5
  store ptr null, ptr %31, align 8
  br label %32

32:                                               ; preds = %23
  %33 = load ptr, ptr %3, align 8
  %34 = getelementptr inbounds %struct.PCF_FaceRec_, ptr %33, i32 0, i32 8
  %35 = load ptr, ptr %34, align 8
  %36 = icmp ne ptr %35, null
  br i1 %36, label %37, label %89

37:                                               ; preds = %32
  store i32 0, ptr %5, align 4
  br label %38

38:                                               ; preds = %77, %37
  %39 = load i32, ptr %5, align 4
  %40 = load ptr, ptr %3, align 8
  %41 = getelementptr inbounds %struct.PCF_FaceRec_, ptr %40, i32 0, i32 7
  %42 = load i32, ptr %41, align 8
  %43 = icmp slt i32 %39, %42
  br i1 %43, label %44, label %80

44:                                               ; preds = %38
  %45 = load ptr, ptr %3, align 8
  %46 = getelementptr inbounds %struct.PCF_FaceRec_, ptr %45, i32 0, i32 8
  %47 = load ptr, ptr %46, align 8
  %48 = load i32, ptr %5, align 4
  %49 = sext i32 %48 to i64
  %50 = getelementptr inbounds %struct.PCF_PropertyRec_, ptr %47, i64 %49
  store ptr %50, ptr %6, align 8
  %51 = load ptr, ptr %6, align 8
  %52 = icmp ne ptr %51, null
  br i1 %52, label %53, label %76

53:                                               ; preds = %44
  br label %54

54:                                               ; preds = %53
  %55 = load ptr, ptr %4, align 8
  %56 = load ptr, ptr %6, align 8
  %57 = getelementptr inbounds %struct.PCF_PropertyRec_, ptr %56, i32 0, i32 0
  %58 = load ptr, ptr %57, align 8
  call void @ft_mem_free(ptr noundef %55, ptr noundef %58)
  %59 = load ptr, ptr %6, align 8
  %60 = getelementptr inbounds %struct.PCF_PropertyRec_, ptr %59, i32 0, i32 0
  store ptr null, ptr %60, align 8
  br label %61

61:                                               ; preds = %54
  %62 = load ptr, ptr %6, align 8
  %63 = getelementptr inbounds %struct.PCF_PropertyRec_, ptr %62, i32 0, i32 1
  %64 = load i8, ptr %63, align 8
  %65 = icmp ne i8 %64, 0
  br i1 %65, label %66, label %75

66:                                               ; preds = %61
  br label %67

67:                                               ; preds = %66
  %68 = load ptr, ptr %4, align 8
  %69 = load ptr, ptr %6, align 8
  %70 = getelementptr inbounds %struct.PCF_PropertyRec_, ptr %69, i32 0, i32 2
  %71 = load ptr, ptr %70, align 8
  call void @ft_mem_free(ptr noundef %68, ptr noundef %71)
  %72 = load ptr, ptr %6, align 8
  %73 = getelementptr inbounds %struct.PCF_PropertyRec_, ptr %72, i32 0, i32 2
  store ptr null, ptr %73, align 8
  br label %74

74:                                               ; preds = %67
  br label %75

75:                                               ; preds = %74, %61
  br label %76

76:                                               ; preds = %75, %44
  br label %77

77:                                               ; preds = %76
  %78 = load i32, ptr %5, align 4
  %79 = add nsw i32 %78, 1
  store i32 %79, ptr %5, align 4
  br label %38, !llvm.loop !4

80:                                               ; preds = %38
  br label %81

81:                                               ; preds = %80
  %82 = load ptr, ptr %4, align 8
  %83 = load ptr, ptr %3, align 8
  %84 = getelementptr inbounds %struct.PCF_FaceRec_, ptr %83, i32 0, i32 8
  %85 = load ptr, ptr %84, align 8
  call void @ft_mem_free(ptr noundef %82, ptr noundef %85)
  %86 = load ptr, ptr %3, align 8
  %87 = getelementptr inbounds %struct.PCF_FaceRec_, ptr %86, i32 0, i32 8
  store ptr null, ptr %87, align 8
  br label %88

88:                                               ; preds = %81
  br label %89

89:                                               ; preds = %88, %32
  br label %90

90:                                               ; preds = %89
  %91 = load ptr, ptr %4, align 8
  %92 = load ptr, ptr %3, align 8
  %93 = getelementptr inbounds %struct.PCF_FaceRec_, ptr %92, i32 0, i32 5
  %94 = getelementptr inbounds %struct.PCF_TocRec_, ptr %93, i32 0, i32 2
  %95 = load ptr, ptr %94, align 8
  call void @ft_mem_free(ptr noundef %91, ptr noundef %95)
  %96 = load ptr, ptr %3, align 8
  %97 = getelementptr inbounds %struct.PCF_FaceRec_, ptr %96, i32 0, i32 5
  %98 = getelementptr inbounds %struct.PCF_TocRec_, ptr %97, i32 0, i32 2
  store ptr null, ptr %98, align 8
  br label %99

99:                                               ; preds = %90
  br label %100

100:                                              ; preds = %99
  %101 = load ptr, ptr %4, align 8
  %102 = load ptr, ptr %2, align 8
  %103 = getelementptr inbounds %struct.FT_FaceRec_, ptr %102, i32 0, i32 5
  %104 = load ptr, ptr %103, align 8
  call void @ft_mem_free(ptr noundef %101, ptr noundef %104)
  %105 = load ptr, ptr %2, align 8
  %106 = getelementptr inbounds %struct.FT_FaceRec_, ptr %105, i32 0, i32 5
  store ptr null, ptr %106, align 8
  br label %107

107:                                              ; preds = %100
  br label %108

108:                                              ; preds = %107
  %109 = load ptr, ptr %4, align 8
  %110 = load ptr, ptr %2, align 8
  %111 = getelementptr inbounds %struct.FT_FaceRec_, ptr %110, i32 0, i32 6
  %112 = load ptr, ptr %111, align 8
  call void @ft_mem_free(ptr noundef %109, ptr noundef %112)
  %113 = load ptr, ptr %2, align 8
  %114 = getelementptr inbounds %struct.FT_FaceRec_, ptr %113, i32 0, i32 6
  store ptr null, ptr %114, align 8
  br label %115

115:                                              ; preds = %108
  br label %116

116:                                              ; preds = %115
  %117 = load ptr, ptr %4, align 8
  %118 = load ptr, ptr %2, align 8
  %119 = getelementptr inbounds %struct.FT_FaceRec_, ptr %118, i32 0, i32 8
  %120 = load ptr, ptr %119, align 8
  call void @ft_mem_free(ptr noundef %117, ptr noundef %120)
  %121 = load ptr, ptr %2, align 8
  %122 = getelementptr inbounds %struct.FT_FaceRec_, ptr %121, i32 0, i32 8
  store ptr null, ptr %122, align 8
  br label %123

123:                                              ; preds = %116
  br label %124

124:                                              ; preds = %123
  %125 = load ptr, ptr %4, align 8
  %126 = load ptr, ptr %3, align 8
  %127 = getelementptr inbounds %struct.PCF_FaceRec_, ptr %126, i32 0, i32 3
  %128 = load ptr, ptr %127, align 8
  call void @ft_mem_free(ptr noundef %125, ptr noundef %128)
  %129 = load ptr, ptr %3, align 8
  %130 = getelementptr inbounds %struct.PCF_FaceRec_, ptr %129, i32 0, i32 3
  store ptr null, ptr %130, align 8
  br label %131

131:                                              ; preds = %124
  br label %132

132:                                              ; preds = %131
  %133 = load ptr, ptr %4, align 8
  %134 = load ptr, ptr %3, align 8
  %135 = getelementptr inbounds %struct.PCF_FaceRec_, ptr %134, i32 0, i32 4
  %136 = load ptr, ptr %135, align 8
  call void @ft_mem_free(ptr noundef %133, ptr noundef %136)
  %137 = load ptr, ptr %3, align 8
  %138 = getelementptr inbounds %struct.PCF_FaceRec_, ptr %137, i32 0, i32 4
  store ptr null, ptr %138, align 8
  br label %139

139:                                              ; preds = %132
  %140 = load ptr, ptr %2, align 8
  %141 = getelementptr inbounds %struct.FT_FaceRec_, ptr %140, i32 0, i32 26
  %142 = load ptr, ptr %141, align 8
  %143 = load ptr, ptr %3, align 8
  %144 = getelementptr inbounds %struct.PCF_FaceRec_, ptr %143, i32 0, i32 1
  %145 = icmp eq ptr %142, %144
  br i1 %145, label %146, label %154

146:                                              ; preds = %139
  %147 = load ptr, ptr %3, align 8
  %148 = getelementptr inbounds %struct.PCF_FaceRec_, ptr %147, i32 0, i32 1
  call void @FT_Stream_Close(ptr noundef %148)
  %149 = load ptr, ptr %3, align 8
  %150 = getelementptr inbounds %struct.PCF_FaceRec_, ptr %149, i32 0, i32 2
  %151 = load ptr, ptr %150, align 8
  %152 = load ptr, ptr %2, align 8
  %153 = getelementptr inbounds %struct.FT_FaceRec_, ptr %152, i32 0, i32 26
  store ptr %151, ptr %153, align 8
  br label %154

154:                                              ; preds = %146, %139, %10
  ret void
}