; Function Attrs: nounwind uwtable
define internal void @PCF_Face_Done(ptr noundef %0) #1 {
  %.not = icmp eq ptr %0, null
  br i1 %.not, label %48, label %2

2:                                                ; preds = %1
  %3 = getelementptr inbounds i8, ptr %0, i64 184
  %4 = load ptr, ptr %3, align 8
  %5 = getelementptr inbounds i8, ptr %0, i64 528
  %6 = load ptr, ptr %5, align 8
  tail call void @ft_mem_free(ptr noundef %4, ptr noundef %6) #15
  store ptr null, ptr %5, align 8
  %7 = getelementptr inbounds i8, ptr %0, i64 552
  %8 = load ptr, ptr %7, align 8
  tail call void @ft_mem_free(ptr noundef %4, ptr noundef %8) #15
  store ptr null, ptr %7, align 8
  %9 = getelementptr inbounds i8, ptr %0, i64 512
  %10 = load ptr, ptr %9, align 8
  %.not51 = icmp eq ptr %10, null
  br i1 %.not51, label %28, label %.preheader

.preheader:                                       ; preds = %2
  %11 = getelementptr inbounds i8, ptr %0, i64 504
  %12 = load i32, ptr %11, align 8
  %13 = icmp sgt i32 %12, 0
  br i1 %13, label %.lr.ph.split, label %._crit_edge

.lr.ph.split:                                     ; preds = %.preheader, %23
  %indvars.iv = phi i64 [ %indvars.iv.next, %23 ], [ 0, %.preheader ]
  %14 = load ptr, ptr %9, align 8
  %15 = getelementptr inbounds %struct.PCF_PropertyRec_, ptr %14, i64 %indvars.iv
  %.not52 = icmp eq ptr %14, null
  br i1 %.not52, label %23, label %16

16:                                               ; preds = %.lr.ph.split
  %17 = load ptr, ptr %15, align 8
  tail call void @ft_mem_free(ptr noundef %4, ptr noundef %17) #15
  store ptr null, ptr %15, align 8
  %18 = getelementptr inbounds i8, ptr %15, i64 8
  %19 = load i8, ptr %18, align 8
  %.not53 = icmp eq i8 %19, 0
  br i1 %.not53, label %23, label %20

20:                                               ; preds = %16
  %21 = getelementptr inbounds i8, ptr %15, i64 16
  %22 = load ptr, ptr %21, align 8
  tail call void @ft_mem_free(ptr noundef %4, ptr noundef %22) #15
  store ptr null, ptr %21, align 8
  br label %23

23:                                               ; preds = %.lr.ph.split, %20, %16
  %indvars.iv.next = add nuw nsw i64 %indvars.iv, 1
  %24 = load i32, ptr %11, align 8
  %25 = sext i32 %24 to i64
  %26 = icmp slt i64 %indvars.iv.next, %25
  br i1 %26, label %.lr.ph.split, label %._crit_edge.loopexit55, !llvm.loop !4

._crit_edge.loopexit55:                           ; preds = %23
  %.pre = load ptr, ptr %9, align 8
  br label %._crit_edge

._crit_edge:                                      ; preds = %._crit_edge.loopexit55, %.preheader
  %27 = phi ptr [ %.pre, %._crit_edge.loopexit55 ], [ %10, %.preheader ]
  tail call void @ft_mem_free(ptr noundef %4, ptr noundef %27) #15
  store ptr null, ptr %9, align 8
  br label %28

28:                                               ; preds = %2, %._crit_edge
  %29 = getelementptr inbounds i8, ptr %0, i64 368
  %30 = load ptr, ptr %29, align 8
  tail call void @ft_mem_free(ptr noundef %4, ptr noundef %30) #15
  store ptr null, ptr %29, align 8
  %31 = getelementptr inbounds i8, ptr %0, i64 40
  %32 = load ptr, ptr %31, align 8
  tail call void @ft_mem_free(ptr noundef %4, ptr noundef %32) #15
  store ptr null, ptr %31, align 8
  %33 = getelementptr inbounds i8, ptr %0, i64 48
  %34 = load ptr, ptr %33, align 8
  tail call void @ft_mem_free(ptr noundef %4, ptr noundef %34) #15
  store ptr null, ptr %33, align 8
  %35 = getelementptr inbounds i8, ptr %0, i64 64
  %36 = load ptr, ptr %35, align 8
  tail call void @ft_mem_free(ptr noundef %4, ptr noundef %36) #15
  store ptr null, ptr %35, align 8
  %37 = getelementptr inbounds i8, ptr %0, i64 336
  %38 = load ptr, ptr %37, align 8
  tail call void @ft_mem_free(ptr noundef %4, ptr noundef %38) #15
  store ptr null, ptr %37, align 8
  %39 = getelementptr inbounds i8, ptr %0, i64 344
  %40 = load ptr, ptr %39, align 8
  tail call void @ft_mem_free(ptr noundef %4, ptr noundef %40) #15
  store ptr null, ptr %39, align 8
  %41 = getelementptr inbounds i8, ptr %0, i64 192
  %42 = load ptr, ptr %41, align 8
  %43 = getelementptr inbounds i8, ptr %0, i64 248
  %44 = icmp eq ptr %42, %43
  br i1 %44, label %45, label %48

45:                                               ; preds = %28
  tail call void @FT_Stream_Close(ptr noundef nonnull %43) #15
  %46 = getelementptr inbounds i8, ptr %0, i64 328
  %47 = load ptr, ptr %46, align 8
  store ptr %47, ptr %41, align 8
  br label %48

48:                                               ; preds = %1, %45, %28
  ret void
}